target datalayout = "e-m:e-p270:32:32-p271:32:32-p272:64:64-i64:64-i128:128-f80:128-n8:16:32:64-S128"
target triple = "x86_64-pc-linux-gnu"

%struct._address_string = type { i32, ptr }

@.str.857 = private unnamed_addr constant [21 x i8] c"Name cannot be empty\00", align 1

; Function Attrs: null_pointer_is_valid sspstrong uwtable
define internal zeroext i1 @update_address_string_cb(ptr noundef %0, ptr noundef %1) #0 {
  %3 = alloca i1, align 1
  %4 = alloca ptr, align 8
  %5 = alloca ptr, align 8
  %6 = alloca ptr, align 8
  %7 = alloca i32, align 4
  store ptr %0, ptr %4, align 8
  store ptr %1, ptr %5, align 8
  call void @llvm.lifetime.start.p0(i64 8, ptr %6) #12
  %8 = load ptr, ptr %4, align 8
  store ptr %8, ptr %6, align 8
  %9 = load ptr, ptr %6, align 8
  %10 = getelementptr inbounds nuw %struct._address_string, ptr %9, i32 0, i32 1
  %11 = load ptr, ptr %10, align 8
  %12 = icmp eq ptr %11, null
  br i1 %12, label %21, label %13

13:                                               ; preds = %2
  %14 = load ptr, ptr %6, align 8
  %15 = getelementptr inbounds nuw %struct._address_string, ptr %14, i32 0, i32 1
  %16 = load ptr, ptr %15, align 8
  %17 = getelementptr i8, ptr %16, i64 0
  %18 = load i8, ptr %17, align 1
  %19 = sext i8 %18 to i32
  %20 = icmp eq i32 %19, 0
  br i1 %20, label %21, label %24

21:                                               ; preds = %13, %2
  %22 = call noalias ptr @g_strdup(ptr noundef @.str.857)
  %23 = load ptr, ptr %5, align 8
  store ptr %22, ptr %23, align 8
  store i1 false, ptr %3, align 1
  store i32 1, ptr %7, align 4
  br label %25

24:                                               ; preds = %13
  store i1 true, ptr %3, align 1
  store i32 1, ptr %7, align 4
  br label %25

25:                                               ; preds = %24, %21
  call void @llvm.lifetime.end.p0(i64 8, ptr %6) #12
  %26 = load i1, ptr %3, align 1
  ret i1 %26
}