; Function Attrs: null_pointer_is_valid sspstrong uwtable
define internal noundef zeroext i1 @update_address_string_cb(ptr noundef readonly captures(none) %0, ptr noundef writeonly captures(none) %1) #0 {
  %3 = getelementptr inbounds nuw i8, ptr %0, i64 8
  %4 = load ptr, ptr %3, align 8
  %5 = icmp eq ptr %4, null
  br i1 %5, label %9, label %6

6:                                                ; preds = %2
  %7 = load i8, ptr %4, align 1
  %8 = icmp eq i8 %7, 0
  br i1 %8, label %9, label %11

9:                                                ; preds = %6, %2
  %10 = tail call noalias ptr @g_strdup(ptr noundef nonnull @.str.857)
  store ptr %10, ptr %1, align 8
  br label %11

11:                                               ; preds = %6, %9
  %.0 = phi i1 [ false, %9 ], [ true, %6 ]
  ret i1 %.0
}